target datalayout = "e-m:e-p270:32:32-p271:32:32-p272:64:64-i64:64-i128:128-f80:128-n8:16:32:64-S128"
target triple = "x86_64-pc-linux-gnu"

%struct.H5FD_multi_fapl_t = type { [7 x i32], [7 x i64], [7 x ptr], [7 x i64], i8 }

@.str.1 = private unnamed_addr constant [103 x i8] c"generated/home/dtcxzyw/WorkSpace/Projects/compilers/llvm-opt-benchmark/bench/hdf5/hdf5/src/H5FDmulti.c\00", align 1
@__func__.H5Pset_fapl_split = private unnamed_addr constant [18 x i8] c"H5Pset_fapl_split\00", align 1
@H5_libinit_g = external global i8, align 1
@H5_libterm_g = external global i8, align 1
@H5E_ERR_CLS_g = external global i64, align 8
@H5E_INTERNAL_g = external global i64, align 8
@H5E_CANTSET_g = external global i64, align 8
@.str.2 = private unnamed_addr constant [39 x i8] c"can't setup split driver configuration\00", align 1
@H5FD_MULTI_id_g = external global i64, align 8

; Function Attrs: nounwind uwtable
define i32 @H5Pset_fapl_split(i64 noundef %0, ptr noundef %1, i64 noundef %2, ptr noundef %3, i64 noundef %4) #0 {
  %6 = alloca i32, align 4
  %7 = alloca i64, align 8
  %8 = alloca ptr, align 8
  %9 = alloca i64, align 8
  %10 = alloca ptr, align 8
  %11 = alloca i64, align 8
  %12 = alloca %struct.H5FD_multi_fapl_t, align 8
  %13 = alloca i32, align 4
  store i64 %0, ptr %7, align 8, !tbaa !12
  store ptr %1, ptr %8, align 8, !tbaa !16
  store i64 %2, ptr %9, align 8, !tbaa !12
  store ptr %3, ptr %10, align 8, !tbaa !16
  store i64 %4, ptr %11, align 8, !tbaa !12
  call void @llvm.lifetime.start.p0(i64 208, ptr %12) #9
  %14 = call i32 @H5Eclear2(i64 noundef 0)
  %15 = load ptr, ptr %8, align 8, !tbaa !16
  %16 = load i64, ptr %9, align 8, !tbaa !12
  %17 = load ptr, ptr %10, align 8, !tbaa !16
  %18 = load i64, ptr %11, align 8, !tbaa !12
  %19 = call i32 @H5FD_split_populate_config(ptr noundef %15, i64 noundef %16, ptr noundef %17, i64 noundef %18, i1 noundef zeroext true, ptr noundef %12)
  %20 = icmp slt i32 %19, 0
  br i1 %20, label %21, label %83

21:                                               ; preds = %5
  br label %22

22:                                               ; preds = %21
  %23 = load i8, ptr @H5_libinit_g, align 1, !tbaa !22, !range !24, !noundef !25
  %24 = trunc i8 %23 to i1
  br i1 %24, label %29, label %25

25:                                               ; preds = %22
  %26 = load i8, ptr @H5_libterm_g, align 1, !tbaa !22, !range !24, !noundef !25
  %27 = trunc i8 %26 to i1
  %28 = xor i1 %27, true
  br label %29

29:                                               ; preds = %25, %22
  %30 = phi i1 [ false, %22 ], [ %28, %25 ]
  %31 = xor i1 %30, true
  %32 = xor i1 %31, true
  %33 = zext i1 %32 to i32
  %34 = sext i32 %33 to i64
  %35 = call i64 @llvm.expect.i64(i64 %34, i64 0)
  %36 = icmp ne i64 %35, 0
  br i1 %36, label %37, label %39

37:                                               ; preds = %29
  %38 = call i32 @H5open()
  br label %40

39:                                               ; preds = %29
  br label %40

40:                                               ; preds = %39, %37
  %41 = load i64, ptr @H5E_ERR_CLS_g, align 8, !tbaa !12
  %42 = load i8, ptr @H5_libinit_g, align 1, !tbaa !22, !range !24, !noundef !25
  %43 = trunc i8 %42 to i1
  br i1 %43, label %48, label %44

44:                                               ; preds = %40
  %45 = load i8, ptr @H5_libterm_g, align 1, !tbaa !22, !range !24, !noundef !25
  %46 = trunc i8 %45 to i1
  %47 = xor i1 %46, true
  br label %48

48:                                               ; preds = %44, %40
  %49 = phi i1 [ false, %40 ], [ %47, %44 ]
  %50 = xor i1 %49, true
  %51 = xor i1 %50, true
  %52 = zext i1 %51 to i32
  %53 = sext i32 %52 to i64
  %54 = call i64 @llvm.expect.i64(i64 %53, i64 0)
  %55 = icmp ne i64 %54, 0
  br i1 %55, label %56, label %58

56:                                               ; preds = %48
  %57 = call i32 @H5open()
  br label %59

58:                                               ; preds = %48
  br label %59

59:                                               ; preds = %58, %56
  %60 = load i64, ptr @H5E_INTERNAL_g, align 8, !tbaa !12
  %61 = load i8, ptr @H5_libinit_g, align 1, !tbaa !22, !range !24, !noundef !25
  %62 = trunc i8 %61 to i1
  br i1 %62, label %67, label %63

63:                                               ; preds = %59
  %64 = load i8, ptr @H5_libterm_g, align 1, !tbaa !22, !range !24, !noundef !25
  %65 = trunc i8 %64 to i1
  %66 = xor i1 %65, true
  br label %67

67:                                               ; preds = %63, %59
  %68 = phi i1 [ false, %59 ], [ %66, %63 ]
  %69 = xor i1 %68, true
  %70 = xor i1 %69, true
  %71 = zext i1 %70 to i32
  %72 = sext i32 %71 to i64
  %73 = call i64 @llvm.expect.i64(i64 %72, i64 0)
  %74 = icmp ne i64 %73, 0
  br i1 %74, label %75, label %77

75:                                               ; preds = %67
  %76 = call i32 @H5open()
  br label %78

77:                                               ; preds = %67
  br label %78

78:                                               ; preds = %77, %75
  %79 = load i64, ptr @H5E_CANTSET_g, align 8, !tbaa !12
  %80 = call i32 (i64, ptr, ptr, i32, i64, i64, i64, ptr, ...) @H5Epush2(i64 noundef 0, ptr noundef @.str.1, ptr noundef @__func__.H5Pset_fapl_split, i32 noundef 216, i64 noundef %41, i64 noundef %60, i64 noundef %79, ptr noundef @.str.2)
  store i32 -1, ptr %6, align 4
  store i32 1, ptr %13, align 4
  br label %105

81:                                               ; No predecessors!
  br label %82

82:                                               ; preds = %81
  br label %83

83:                                               ; preds = %82, %5
  %84 = load i64, ptr %7, align 8, !tbaa !12
  %85 = load i8, ptr @H5_libinit_g, align 1, !tbaa !22, !range !24, !noundef !25
  %86 = trunc i8 %85 to i1
  br i1 %86, label %91, label %87

87:                                               ; preds = %83
  %88 = load i8, ptr @H5_libterm_g, align 1, !tbaa !22, !range !24, !noundef !25
  %89 = trunc i8 %88 to i1
  %90 = xor i1 %89, true
  br label %91

91:                                               ; preds = %87, %83
  %92 = phi i1 [ false, %83 ], [ %90, %87 ]
  %93 = xor i1 %92, true
  %94 = xor i1 %93, true
  %95 = zext i1 %94 to i32
  %96 = sext i32 %95 to i64
  %97 = call i64 @llvm.expect.i64(i64 %96, i64 0)
  %98 = icmp ne i64 %97, 0
  br i1 %98, label %99, label %101

99:                                               ; preds = %91
  %100 = call i32 @H5open()
  br label %102

101:                                              ; preds = %91
  br label %102

102:                                              ; preds = %101, %99
  %103 = load i64, ptr @H5FD_MULTI_id_g, align 8, !tbaa !12
  %104 = call i32 @H5Pset_driver(i64 noundef %84, i64 noundef %103, ptr noundef %12)
  store i32 %104, ptr %6, align 4
  store i32 1, ptr %13, align 4
  br label %105

105:                                              ; preds = %102, %78
  call void @llvm.lifetime.end.p0(i64 208, ptr %12) #9
  %106 = load i32, ptr %6, align 4
  ret i32 %106
}