; Function Attrs: nounwind uwtable
define i32 @H5Pset_fapl_split(i64 noundef %0, ptr noundef %1, i64 noundef %2, ptr noundef %3, i64 noundef %4) local_unnamed_addr #0 {
  %6 = alloca %struct.H5FD_multi_fapl_t, align 8
  call void @llvm.lifetime.start.p0(i64 208, ptr nonnull %6) #15
  %7 = tail call i32 @H5Eclear2(i64 noundef 0) #15
  %8 = call fastcc i32 @H5FD_split_populate_config(ptr noundef %1, i64 noundef %2, ptr noundef %3, i64 noundef %4, ptr noundef %6)
  %9 = icmp slt i32 %8, 0
  %10 = load i8, ptr @H5_libinit_g, align 1, !tbaa !18, !range !20, !noundef !21
  %11 = trunc nuw i8 %10 to i1
  %12 = load i8, ptr @H5_libterm_g, align 1, !range !20
  %13 = trunc nuw i8 %12 to i1
  %14 = select i1 %11, i1 true, i1 %13
  br i1 %9, label %15, label %39

15:                                               ; preds = %5
  br i1 %14, label %18, label %16, !prof !22

16:                                               ; preds = %15
  %17 = tail call i32 @H5open() #15
  %.pre = load i8, ptr @H5_libinit_g, align 1, !tbaa !18, !range !20
  %.pre5 = load i8, ptr @H5_libterm_g, align 1, !range !20
  br label %18

18:                                               ; preds = %15, %16
  %19 = phi i8 [ %12, %15 ], [ %.pre5, %16 ]
  %20 = phi i8 [ %10, %15 ], [ %.pre, %16 ]
  %21 = load i64, ptr @H5E_ERR_CLS_g, align 8, !tbaa !23
  %22 = trunc nuw i8 %20 to i1
  %23 = trunc nuw i8 %19 to i1
  %24 = select i1 %22, i1 true, i1 %23
  br i1 %24, label %27, label %25, !prof !22

25:                                               ; preds = %18
  %26 = tail call i32 @H5open() #15
  %.pre6 = load i8, ptr @H5_libinit_g, align 1, !tbaa !18, !range !20
  %.pre7 = load i8, ptr @H5_libterm_g, align 1, !range !20
  br label %27

27:                                               ; preds = %18, %25
  %28 = phi i8 [ %19, %18 ], [ %.pre7, %25 ]
  %29 = phi i8 [ %20, %18 ], [ %.pre6, %25 ]
  %30 = load i64, ptr @H5E_INTERNAL_g, align 8, !tbaa !23
  %31 = trunc nuw i8 %29 to i1
  %32 = trunc nuw i8 %28 to i1
  %33 = select i1 %31, i1 true, i1 %32
  br i1 %33, label %36, label %34, !prof !22

34:                                               ; preds = %27
  %35 = tail call i32 @H5open() #15
  br label %36

36:                                               ; preds = %27, %34
  %37 = load i64, ptr @H5E_CANTSET_g, align 8, !tbaa !23
  %38 = tail call i32 (i64, ptr, ptr, i32, i64, i64, i64, ptr, ...) @H5Epush2(i64 noundef 0, ptr noundef nonnull @.str.1, ptr noundef nonnull @__func__.H5Pset_fapl_split, i32 noundef 216, i64 noundef %21, i64 noundef %30, i64 noundef %37, ptr noundef nonnull @.str.2) #15
  br label %45

39:                                               ; preds = %5
  br i1 %14, label %42, label %40, !prof !22

40:                                               ; preds = %39
  %41 = tail call i32 @H5open() #15
  br label %42

42:                                               ; preds = %39, %40
  %43 = load i64, ptr @H5FD_MULTI_id_g, align 8, !tbaa !23
  %44 = call i32 @H5Pset_driver(i64 noundef %0, i64 noundef %43, ptr noundef nonnull %6) #15
  br label %45

45:                                               ; preds = %42, %36
  %.0 = phi i32 [ -1, %36 ], [ %44, %42 ]
  call void @llvm.lifetime.end.p0(i64 208, ptr nonnull %6) #15
  ret i32 %.0
}